target datalayout = "e-m:e-p270:32:32-p271:32:32-p272:64:64-i64:64-i128:128-f80:128-n8:16:32:64-S128"
target triple = "x86_64-pc-linux-gnu"

%"class.gmx::PositionCalculationCollection::Impl" = type { ptr, ptr, ptr, i8, %"class.std::vector.5", %"class.std::vector.5" }
%"class.std::vector.5" = type { %"struct.std::_Vector_base.6" }
%"struct.std::_Vector_base.6" = type { %"struct.std::_Vector_base<int, std::allocator<int>>::_Vector_impl" }
%"struct.std::_Vector_base<int, std::allocator<int>>::_Vector_impl" = type { %"struct.std::_Vector_base<int, std::allocator<int>>::_Vector_impl_data" }
%"struct.std::_Vector_base<int, std::allocator<int>>::_Vector_impl_data" = type { ptr, ptr, ptr }
%struct.gmx_ana_poscalc_t = type { i32, i32, i32, %struct.t_blocka, ptr, %struct.gmx_ana_index_t, ptr, i8, ptr, ptr, ptr, i32, ptr }
%struct.t_blocka = type { i32, ptr, i32, ptr, i32, i32 }
%struct.gmx_ana_index_t = type { i32, ptr, i32 }
%class.anon.10 = type { i8 }

@.str.18 = private unnamed_addr constant [127 x i8] c"generated/home/dtcxzyw/WorkSpace/Projects/compilers/llvm-opt-benchmark/bench/gromacs/gromacs/src/gromacs/selection/poscalc.cpp\00", align 1
@.str.21 = private unnamed_addr constant [17 x i8] c"pc->coll == this\00", align 1
@.str.22 = private unnamed_addr constant [25 x i8] c"Inconsistent collections\00", align 1

; Function Attrs: inlinehint mustprogress uwtable
define internal void @"_ZZN3gmx29PositionCalculationCollection4Impl17removeCalculationEP17gmx_ana_poscalc_tENK3$_0clEv"(ptr noundef nonnull align 1 dereferenceable(1) %0) #2 align 2 {
  %2 = alloca ptr, align 8
  store ptr %0, ptr %2, align 8, !tbaa !9
  call void @_ZN3gmx8internal13assertHandlerEPKcS2_S2_S2_i(ptr noundef @.str.21, ptr noundef @.str.22, ptr noundef @"__PRETTY_FUNCTION__._ZZN3gmx29PositionCalculationCollection4Impl17removeCalculationEP17gmx_ana_poscalc_tENK3$_0clEv", ptr noundef @.str.18, i32 noundef 416) #18
  unreachable
}

; Function Attrs: mustprogress uwtable
define void @_ZN3gmx29PositionCalculationCollection4Impl17removeCalculationEP17gmx_ana_poscalc_t(ptr noundef nonnull align 8 dereferenceable(80) %0, ptr noundef %1) #0 align 2 {
  %3 = alloca ptr, align 8
  %4 = alloca ptr, align 8
  %5 = alloca %class.anon.10, align 1
  store ptr %0, ptr %3, align 8, !tbaa !134
  store ptr %1, ptr %4, align 8, !tbaa !171
  %6 = load ptr, ptr %3, align 8
  %7 = load ptr, ptr %4, align 8, !tbaa !171
  %8 = getelementptr inbounds nuw %struct.gmx_ana_poscalc_t, ptr %7, i32 0, i32 12
  %9 = load ptr, ptr %8, align 8, !tbaa !172
  %10 = icmp eq ptr %9, %6
  call void @llvm.lifetime.start.p0(i64 1, ptr %5) #17
  br i1 %10, label %11, label %12

11:                                               ; preds = %2
  br label %13

12:                                               ; preds = %2
  call void @"_ZZN3gmx29PositionCalculationCollection4Impl17removeCalculationEP17gmx_ana_poscalc_tENK3$_0clEv"(ptr noundef nonnull align 1 dereferenceable(1) %5)
  br label %13

13:                                               ; preds = %12, %11
  call void @llvm.lifetime.end.p0(i64 1, ptr %5) #17
  %14 = load ptr, ptr %4, align 8, !tbaa !171
  %15 = getelementptr inbounds nuw %struct.gmx_ana_poscalc_t, ptr %14, i32 0, i32 10
  %16 = load ptr, ptr %15, align 8, !tbaa !182
  %17 = icmp ne ptr %16, null
  br i1 %17, label %18, label %26

18:                                               ; preds = %13
  %19 = load ptr, ptr %4, align 8, !tbaa !171
  %20 = getelementptr inbounds nuw %struct.gmx_ana_poscalc_t, ptr %19, i32 0, i32 9
  %21 = load ptr, ptr %20, align 8, !tbaa !181
  %22 = load ptr, ptr %4, align 8, !tbaa !171
  %23 = getelementptr inbounds nuw %struct.gmx_ana_poscalc_t, ptr %22, i32 0, i32 10
  %24 = load ptr, ptr %23, align 8, !tbaa !182
  %25 = getelementptr inbounds nuw %struct.gmx_ana_poscalc_t, ptr %24, i32 0, i32 9
  store ptr %21, ptr %25, align 8, !tbaa !181
  br label %37

26:                                               ; preds = %13
  %27 = load ptr, ptr %4, align 8, !tbaa !171
  %28 = getelementptr inbounds nuw %"class.gmx::PositionCalculationCollection::Impl", ptr %6, i32 0, i32 1
  %29 = load ptr, ptr %28, align 8, !tbaa !144
  %30 = icmp eq ptr %27, %29
  br i1 %30, label %31, label %36

31:                                               ; preds = %26
  %32 = load ptr, ptr %4, align 8, !tbaa !171
  %33 = getelementptr inbounds nuw %struct.gmx_ana_poscalc_t, ptr %32, i32 0, i32 9
  %34 = load ptr, ptr %33, align 8, !tbaa !181
  %35 = getelementptr inbounds nuw %"class.gmx::PositionCalculationCollection::Impl", ptr %6, i32 0, i32 1
  store ptr %34, ptr %35, align 8, !tbaa !144
  br label %36

36:                                               ; preds = %31, %26
  br label %37

37:                                               ; preds = %36, %18
  %38 = load ptr, ptr %4, align 8, !tbaa !171
  %39 = getelementptr inbounds nuw %struct.gmx_ana_poscalc_t, ptr %38, i32 0, i32 9
  %40 = load ptr, ptr %39, align 8, !tbaa !181
  %41 = icmp ne ptr %40, null
  br i1 %41, label %42, label %50

42:                                               ; preds = %37
  %43 = load ptr, ptr %4, align 8, !tbaa !171
  %44 = getelementptr inbounds nuw %struct.gmx_ana_poscalc_t, ptr %43, i32 0, i32 10
  %45 = load ptr, ptr %44, align 8, !tbaa !182
  %46 = load ptr, ptr %4, align 8, !tbaa !171
  %47 = getelementptr inbounds nuw %struct.gmx_ana_poscalc_t, ptr %46, i32 0, i32 9
  %48 = load ptr, ptr %47, align 8, !tbaa !181
  %49 = getelementptr inbounds nuw %struct.gmx_ana_poscalc_t, ptr %48, i32 0, i32 10
  store ptr %45, ptr %49, align 8, !tbaa !182
  br label %61

50:                                               ; preds = %37
  %51 = load ptr, ptr %4, align 8, !tbaa !171
  %52 = getelementptr inbounds nuw %"class.gmx::PositionCalculationCollection::Impl", ptr %6, i32 0, i32 2
  %53 = load ptr, ptr %52, align 8, !tbaa !145
  %54 = icmp eq ptr %51, %53
  br i1 %54, label %55, label %60

55:                                               ; preds = %50
  %56 = load ptr, ptr %4, align 8, !tbaa !171
  %57 = getelementptr inbounds nuw %struct.gmx_ana_poscalc_t, ptr %56, i32 0, i32 10
  %58 = load ptr, ptr %57, align 8, !tbaa !182
  %59 = getelementptr inbounds nuw %"class.gmx::PositionCalculationCollection::Impl", ptr %6, i32 0, i32 2
  store ptr %58, ptr %59, align 8, !tbaa !145
  br label %60

60:                                               ; preds = %55, %50
  br label %61

61:                                               ; preds = %60, %42
  %62 = load ptr, ptr %4, align 8, !tbaa !171
  %63 = getelementptr inbounds nuw %struct.gmx_ana_poscalc_t, ptr %62, i32 0, i32 9
  store ptr null, ptr %63, align 8, !tbaa !181
  %64 = load ptr, ptr %4, align 8, !tbaa !171
  %65 = getelementptr inbounds nuw %struct.gmx_ana_poscalc_t, ptr %64, i32 0, i32 10
  store ptr null, ptr %65, align 8, !tbaa !182
  ret void
}