; Function Attrs: mustprogress uwtable
define void @_ZN3gmx29PositionCalculationCollection4Impl17removeCalculationEP17gmx_ana_poscalc_t(ptr noundef nonnull align 8 dereferenceable(80) %0, ptr noundef %1) local_unnamed_addr #0 align 2 {
  %3 = getelementptr inbounds nuw i8, ptr %1, i64 136
  %4 = load ptr, ptr %3, align 8, !tbaa !70
  %5 = icmp eq ptr %4, %0
  br i1 %5, label %7, label %6

6:                                                ; preds = %2
  tail call void @_ZN3gmx8internal13assertHandlerEPKcS2_S2_S2_i(ptr noundef nonnull @.str.21, ptr noundef nonnull @.str.22, ptr noundef nonnull @"__PRETTY_FUNCTION__._ZZN3gmx29PositionCalculationCollection4Impl17removeCalculationEP17gmx_ana_poscalc_tENK3$_0clEv", ptr noundef nonnull @.str.18, i32 noundef 416) #27
  unreachable

7:                                                ; preds = %2
  %8 = getelementptr inbounds nuw i8, ptr %1, i64 120
  %9 = load ptr, ptr %8, align 8, !tbaa !71
  %.not = icmp eq ptr %9, null
  br i1 %.not, label %14, label %10

10:                                               ; preds = %7
  %11 = getelementptr inbounds nuw i8, ptr %1, i64 112
  %12 = load ptr, ptr %11, align 8, !tbaa !72
  %13 = getelementptr inbounds nuw i8, ptr %9, i64 112
  store ptr %12, ptr %13, align 8, !tbaa !72
  br label %._crit_edge

14:                                               ; preds = %7
  %15 = getelementptr inbounds nuw i8, ptr %0, i64 8
  %16 = load ptr, ptr %15, align 8, !tbaa !73
  %17 = icmp eq ptr %1, %16
  %18 = getelementptr inbounds nuw i8, ptr %1, i64 112
  %19 = load ptr, ptr %18, align 8, !tbaa !72
  br i1 %17, label %20, label %._crit_edge

20:                                               ; preds = %14
  store ptr %19, ptr %15, align 8, !tbaa !73
  br label %._crit_edge

._crit_edge:                                      ; preds = %14, %20, %10
  %21 = phi ptr [ %19, %20 ], [ %12, %10 ], [ %19, %14 ]
  %.not16 = icmp eq ptr %21, null
  br i1 %.not16, label %24, label %22

22:                                               ; preds = %._crit_edge
  %23 = getelementptr inbounds nuw i8, ptr %21, i64 120
  store ptr %9, ptr %23, align 8, !tbaa !71
  br label %29

24:                                               ; preds = %._crit_edge
  %25 = getelementptr inbounds nuw i8, ptr %0, i64 16
  %26 = load ptr, ptr %25, align 8, !tbaa !48
  %27 = icmp eq ptr %1, %26
  br i1 %27, label %28, label %29

28:                                               ; preds = %24
  store ptr %9, ptr %25, align 8, !tbaa !48
  br label %29

29:                                               ; preds = %24, %28, %22
  %30 = getelementptr inbounds nuw i8, ptr %1, i64 112
  tail call void @llvm.memset.p0.i64(ptr noundef nonnull align 8 dereferenceable(16) %30, i8 0, i64 16, i1 false)
  ret void
}